; Function Attrs: mustprogress nounwind uwtable
define internal void @_ZN8facebook5velox10serializer5spark12_GLOBAL__N_125UnsafeRowVectorSerializerD2Ev(ptr nocapture noundef nonnull align 8 dereferenceable(40) %this) unnamed_addr #6 align 2 personality ptr @__gxx_personality_v0 {
entry:
  store ptr getelementptr inbounds ({ [10 x ptr] }, ptr @_ZTVN8facebook5velox10serializer5spark12_GLOBAL__N_125UnsafeRowVectorSerializerE, i64 0, i32 0, i64 2), ptr %this, align 8
  %buffers_ = getelementptr inbounds i8, ptr %this, i64 16
  %0 = load ptr, ptr %buffers_, align 8
  %_M_finish.i = getelementptr inbounds i8, ptr %this, i64 24
  %1 = load ptr, ptr %_M_finish.i, align 8
  %cmp.not3.i.i.i.i = icmp eq ptr %0, %1
  br i1 %cmp.not3.i.i.i.i, label %invoke.cont.i, label %for.body.i.i.i.i

for.body.i.i.i.i:                                 ; preds = %entry, %_ZSt8_DestroyIN5boost13intrusive_ptrIN8facebook5velox6BufferEEEEvPT_.exit.i.i.i.i
  %__first.addr.04.i.i.i.i = phi ptr [ %incdec.ptr.i.i.i.i, %_ZSt8_DestroyIN5boost13intrusive_ptrIN8facebook5velox6BufferEEEEvPT_.exit.i.i.i.i ], [ %0, %entry ]
  %2 = load ptr, ptr %__first.addr.04.i.i.i.i, align 8
  %cmp.not.i.i.i.i.i.i = icmp eq ptr %2, null
  br i1 %cmp.not.i.i.i.i.i.i, label %_ZSt8_DestroyIN5boost13intrusive_ptrIN8facebook5velox6BufferEEEEvPT_.exit.i.i.i.i, label %if.then.i.i.i.i.i.i

if.then.i.i.i.i.i.i:                              ; preds = %for.body.i.i.i.i
  %referenceCount_.i.i.i.i.i.i.i.i = getelementptr inbounds i8, ptr %2, i64 40
  %3 = atomicrmw sub ptr %referenceCount_.i.i.i.i.i.i.i.i, i32 1 seq_cst, align 4
  %cmp.i.i.i.i.i.i.i.i = icmp eq i32 %3, 1
  br i1 %cmp.i.i.i.i.i.i.i.i, label %if.then.i.i.i.i.i.i.i.i, label %_ZSt8_DestroyIN5boost13intrusive_ptrIN8facebook5velox6BufferEEEEvPT_.exit.i.i.i.i

if.then.i.i.i.i.i.i.i.i:                          ; preds = %if.then.i.i.i.i.i.i
  %vtable.i.i.i.i.i.i.i.i = load ptr, ptr %2, align 8
  %vfn.i.i.i.i.i.i.i.i = getelementptr inbounds i8, ptr %vtable.i.i.i.i.i.i.i.i, i64 64
  %4 = load ptr, ptr %vfn.i.i.i.i.i.i.i.i, align 8
  invoke void %4(ptr noundef nonnull align 8 dereferenceable(64) %2)
          to label %.noexc.i.i.i.i.i.i unwind label %terminate.lpad.i.i.i.i.i.i

.noexc.i.i.i.i.i.i:                               ; preds = %if.then.i.i.i.i.i.i.i.i
  %pool_.i.i.i.i.i.i.i.i = getelementptr inbounds i8, ptr %2, i64 8
  %5 = load ptr, ptr %pool_.i.i.i.i.i.i.i.i, align 8
  %tobool.not.i.i.i.i.i.i.i.i = icmp eq ptr %5, null
  %vtable5.i.i.i.i.i.i.i.i = load ptr, ptr %2, align 8
  br i1 %tobool.not.i.i.i.i.i.i.i.i, label %delete.notnull.i.i.i.i.i.i.i.i, label %if.then2.i.i.i.i.i.i.i.i

if.then2.i.i.i.i.i.i.i.i:                         ; preds = %.noexc.i.i.i.i.i.i
  %vfn4.i.i.i.i.i.i.i.i = getelementptr inbounds i8, ptr %vtable5.i.i.i.i.i.i.i.i, i64 48
  %6 = load ptr, ptr %vfn4.i.i.i.i.i.i.i.i, align 8
  invoke void %6(ptr noundef nonnull align 8 dereferenceable(64) %2)
          to label %_ZSt8_DestroyIN5boost13intrusive_ptrIN8facebook5velox6BufferEEEEvPT_.exit.i.i.i.i unwind label %terminate.lpad.i.i.i.i.i.i

delete.notnull.i.i.i.i.i.i.i.i:                   ; preds = %.noexc.i.i.i.i.i.i
  %vfn6.i.i.i.i.i.i.i.i = getelementptr inbounds i8, ptr %vtable5.i.i.i.i.i.i.i.i, i64 8
  %7 = load ptr, ptr %vfn6.i.i.i.i.i.i.i.i, align 8
  tail call void %7(ptr noundef nonnull align 8 dereferenceable(64) %2) #34
  br label %_ZSt8_DestroyIN5boost13intrusive_ptrIN8facebook5velox6BufferEEEEvPT_.exit.i.i.i.i

terminate.lpad.i.i.i.i.i.i:                       ; preds = %if.then2.i.i.i.i.i.i.i.i, %if.then.i.i.i.i.i.i.i.i
  %8 = landingpad { ptr, i32 }
          catch ptr null
  %9 = extractvalue { ptr, i32 } %8, 0
  tail call void @__clang_call_terminate(ptr %9) #37
  unreachable

_ZSt8_DestroyIN5boost13intrusive_ptrIN8facebook5velox6BufferEEEEvPT_.exit.i.i.i.i: ; preds = %delete.notnull.i.i.i.i.i.i.i.i, %if.then2.i.i.i.i.i.i.i.i, %if.then.i.i.i.i.i.i, %for.body.i.i.i.i
  %incdec.ptr.i.i.i.i = getelementptr inbounds i8, ptr %__first.addr.04.i.i.i.i, i64 8
  %cmp.not.i.i.i.i = icmp eq ptr %incdec.ptr.i.i.i.i, %1
  br i1 %cmp.not.i.i.i.i, label %invoke.contthread-pre-split.i, label %for.body.i.i.i.i, !llvm.loop !54

invoke.contthread-pre-split.i:                    ; preds = %_ZSt8_DestroyIN5boost13intrusive_ptrIN8facebook5velox6BufferEEEEvPT_.exit.i.i.i.i
  %.pr.i = load ptr, ptr %buffers_, align 8
  br label %invoke.cont.i

invoke.cont.i:                                    ; preds = %invoke.contthread-pre-split.i, %entry
  %10 = phi ptr [ %.pr.i, %invoke.contthread-pre-split.i ], [ %0, %entry ]
  %tobool.not.i.i.i = icmp eq ptr %10, null
  br i1 %tobool.not.i.i.i, label %_ZNSt6vectorIN5boost13intrusive_ptrIN8facebook5velox6BufferEEESaIS5_EED2Ev.exit, label %if.then.i.i.i

if.then.i.i.i:                                    ; preds = %invoke.cont.i
  tail call void @_ZdlPv(ptr noundef nonnull %10) #36
  br label %_ZNSt6vectorIN5boost13intrusive_ptrIN8facebook5velox6BufferEEESaIS5_EED2Ev.exit

_ZNSt6vectorIN5boost13intrusive_ptrIN8facebook5velox6BufferEEESaIS5_EED2Ev.exit: ; preds = %invoke.cont.i, %if.then.i.i.i
  ret void
}